Certificate:
    Data:
        Version: 3 (0x2)
        Serial Number: 33 (0x21)
        Signature Algorithm: md5WithRSAEncryption
        Issuer: C=DK, ST=Aarhus, L=Aarhus, O=CABO, CN=CABO
        Validity
            Not Before: Apr  1 13:44:23 2008 GMT
            Not After : Mar 30 13:44:23 2018 GMT
        Subject: C=DK, ST=Aarhus, L=Aarhus, O=CABO, CN=test_user
        Subject Public Key Info:
            Public Key Algorithm: rsaEncryption
            RSA Public Key: (1024 bit)
                Modulus (1024 bit):
                    00:da:be:d1:e1:15:2f:c9:08:ab:81:cf:52:b9:d4:
                    36:9c:4f:4e:67:ee:32:fd:c4:19:86:6c:72:e0:32:
                    af:0a:0c:48:d2:4a:67:76:ee:09:94:21:36:c6:32:
                    a8:a0:3d:d9:19:53:54:0a:53:15:2d:a8:76:8e:d0:
                    bb:68:f6:b1:68:d9:9f:cb:25:31:93:87:34:74:02:
                    eb:2c:28:df:d2:ee:d3:41:d6:da:a5:17:b2:68:8b:
                    a0:35:b1:7c:f7:17:01:21:b8:b0:33:2a:7e:e1:27:
                    71:4a:eb:44:9d:03:63:1f:54:ba:44:dc:45:02:d0:
                    07:e5:1d:10:76:fa:05:13:e3
                Exponent: 65537 (0x10001)
        X509v3 extensions:
            X509v3 Basic Constraints: 
                CA:FALSE
            Netscape Comment: 
                OpenSSL Generated Certificate
            X509v3 Subject Key Identifier: 
                66:7B:3A:B6:54:46:FB:74:08:00:66:75:F1:C7:AE:56:06:96:B0:52
            X509v3 Authority Key Identifier: 
                keyid:84:75:25:1F:12:8F:BA:89:57:59:74:BB:59:6B:75:19:0B:FA:95:AC
                DirName:/C=DK/ST=Aarhus/L=Aarhus/O=CABO/CN=CABO
                serial:00

    Signature Algorithm: md5WithRSAEncryption
        70:af:e8:9f:39:56:1d:5a:55:a2:fa:a1:50:6b:e9:54:1d:cb:
        07:4d:37:7c:20:23:08:ca:89:d0:37:fa:bb:e2:1f:41:39:e3:
        da:08:0e:a8:2c:e8:ef:8d:0d:73:98:22:4a:95:50:f4:19:08:
        c6:d8:c8:ce:f7:f3:fa:8f:6e:a5:56:63:cd:51:b2:73:b4:29:
        d1:b7:36:39:24:6a:41:c9:47:82:21:11:06:fb:78:63:81:7b:
        90:31:09:db:b9:16:e9:68:c8:6c:d5:16:79:96:e9:4e:f7:22:
        b8:0e:05:8b:c9:f3:44:8f:05:5d:17:a3:a8:72:f0:01:fb:6c:
        88:ec
-----BEGIN CERTIFICATE-----
MIIC6DCCAlGgAwIBAgIBITANBgkqhkiG9w0BAQQFADBNMQswCQYDVQQGEwJESzEP
MA0GA1UECBMGQWFyaHVzMQ8wDQYDVQQHEwZBYXJodXMxDTALBgNVBAoTBENBQk8x
DTALBgNVBAMTBENBQk8wHhcNMDgwNDAxMTM0NDIzWhcNMTgwMzMwMTM0NDIzWjBS
MQswCQYDVQQGEwJESzEPMA0GA1UECBMGQWFyaHVzMQ8wDQYDVQQHEwZBYXJodXMx
DTALBgNVBAoTBENBQk8xEjAQBgNVBAMUCXRlc3RfdXNlcjCBnzANBgkqhkiG9w0B
AQEFAAOBjQAwgYkCgYEA2r7R4RUvyQirgc9SudQ2nE9OZ+4y/cQZhmxy4DKvCgxI
0kpndu4JlCE2xjKooD3ZGVNUClMVLah2jtC7aPaxaNmfyyUxk4c0dALrLCjf0u7T
QdbapReyaIugNbF89xcBIbiwMyp+4SdxSutEnQNjH1S6RNxFAtAH5R0QdvoFE+MC
AwEAAaOB0jCBzzAJBgNVHRMEAjAAMCwGCWCGSAGG+EIBDQQfFh1PcGVuU1NMIEdl
bmVyYXRlZCBDZXJ0aWZpY2F0ZTAdBgNVHQ4EFgQUZns6tlRG+3QIAGZ18ceuVgaW
sFIwdQYDVR0jBG4wbIAUhHUlHxKPuolXWXS7WWt1GQv6layhUaRPME0xCzAJBgNV
BAYTAkRLMQ8wDQYDVQQIEwZBYXJodXMxDzANBgNVBAcTBkFhcmh1czENMAsGA1UE
ChMEQ0FCTzENMAsGA1UEAxMEQ0FCT4IBADANBgkqhkiG9w0BAQQFAAOBgQBwr+if
OVYdWlWi+qFQa+lUHcsHTTd8ICMIyonQN/q74h9BOePaCA6oLOjvjQ1zmCJKlVD0
GQjG2MjO9/P6j26lVmPNUbJztCnRtzY5JGpByUeCIREG+3hjgXuQMQnbuRbpaMhs
1RZ5lulO9yK4DgWLyfNEjwVdF6OocvAB+2yI7A==
-----END CERTIFICATE-----
